; Function Attrs: nounwind uwtable
define void @Gia_ObjCollapseDeref(ptr noundef readonly captures(none) %0, ptr noundef %1, ptr noundef readonly captures(none) %2, i32 noundef %3) local_unnamed_addr #0 {
  %5 = getelementptr i8, ptr %0, i64 144
  %.val6 = load ptr, ptr %5, align 8, !tbaa !61
  %6 = sext i32 %3 to i64
  %7 = getelementptr inbounds i32, ptr %.val6, i64 %6
  %8 = load i32, ptr %7, align 4, !tbaa !22
  %9 = add nsw i32 %8, -1
  store i32 %9, ptr %7, align 4, !tbaa !22
  %.not = icmp eq i32 %9, 0
  br i1 %.not, label %10, label %15

10:                                               ; preds = %4
  %11 = getelementptr i8, ptr %2, i64 8
  %.val = load ptr, ptr %11, align 8, !tbaa !58
  %12 = getelementptr inbounds ptr, ptr %.val, i64 %6
  %13 = load ptr, ptr %12, align 8, !tbaa !59
  tail call void @Cudd_RecursiveDeref(ptr noundef %1, ptr noundef %13) #14
  %.val7 = load ptr, ptr %11, align 8, !tbaa !58
  %14 = getelementptr inbounds ptr, ptr %.val7, i64 %6
  store ptr null, ptr %14, align 8, !tbaa !59
  br label %15

15:                                               ; preds = %4, %10
  ret void
}